target datalayout = "e-m:e-p270:32:32-p271:32:32-p272:64:64-i64:64-i128:128-f80:128-n8:16:32:64-S128"
target triple = "x86_64-pc-linux-gnu"

%struct.hwloc_topology = type { i32, i32, i32, ptr, ptr, i64, [20 x i32], [20 x i32], i64, i64, i32, ptr, i64, ptr, i64, [6 x %struct.hwloc_special_level_s], ptr, ptr, %struct.hwloc_binding_hooks, %struct.hwloc_topology_support, %struct.hwloc_infos_s, ptr, ptr, i32, ptr, ptr, i32, i32, ptr, i32, i32, ptr, i32, i32, i32, [5 x float], i32, ptr, ptr, i32, i32, ptr, i32, %struct.hwloc_numanode_attr_s, i32, i32, ptr, i64, i32, ptr, ptr, ptr }
%struct.hwloc_special_level_s = type { i32, ptr, ptr, ptr }
%struct.hwloc_binding_hooks = type { ptr, ptr, ptr, ptr, ptr, ptr, ptr, ptr, ptr, ptr, ptr, ptr, ptr, ptr, ptr, ptr, ptr, ptr, ptr, ptr, ptr, ptr, ptr, ptr }
%struct.hwloc_topology_support = type { ptr, ptr, ptr, ptr }
%struct.hwloc_infos_s = type { ptr, i32, i32 }
%struct.hwloc_numanode_attr_s = type { i64, i32, ptr }

; Function Attrs: nounwind uwtable
define i32 @hwloc_distances_get_by_depth(ptr noundef %0, i32 noundef %1, ptr noundef %2, ptr noundef %3, i64 noundef %4, i64 noundef %5) #0 {
  %7 = alloca i32, align 4
  %8 = alloca ptr, align 8
  %9 = alloca i32, align 4
  %10 = alloca ptr, align 8
  %11 = alloca ptr, align 8
  %12 = alloca i64, align 8
  %13 = alloca i64, align 8
  %14 = alloca i32, align 4
  %15 = alloca i32, align 4
  store ptr %0, ptr %8, align 8, !tbaa !3
  store i32 %1, ptr %9, align 4, !tbaa !38
  store ptr %2, ptr %10, align 8, !tbaa !106
  store ptr %3, ptr %11, align 8, !tbaa !121
  store i64 %4, ptr %12, align 8, !tbaa !80
  store i64 %5, ptr %13, align 8, !tbaa !80
  call void @llvm.lifetime.start.p0(i64 4, ptr %14) #15
  %16 = load i64, ptr %13, align 8, !tbaa !80
  %17 = icmp ne i64 %16, 0
  br i1 %17, label %24, label %18

18:                                               ; preds = %6
  %19 = load ptr, ptr %8, align 8, !tbaa !3
  %20 = getelementptr inbounds nuw %struct.hwloc_topology, ptr %19, i32 0, i32 8
  %21 = load i64, ptr %20, align 8, !tbaa !67
  %22 = and i64 %21, 2
  %23 = icmp ne i64 %22, 0
  br i1 %23, label %26, label %24

24:                                               ; preds = %18, %6
  %25 = call ptr @__errno_location() #17
  store i32 22, ptr %25, align 4, !tbaa !38
  store i32 -1, ptr %7, align 4
  store i32 1, ptr %15, align 4
  br label %42

26:                                               ; preds = %18
  %27 = load ptr, ptr %8, align 8, !tbaa !3
  %28 = load i32, ptr %9, align 4, !tbaa !38
  %29 = call i32 @hwloc_get_depth_type(ptr noundef %27, i32 noundef %28) #16
  store i32 %29, ptr %14, align 4, !tbaa !38
  %30 = load i32, ptr %14, align 4, !tbaa !38
  %31 = icmp eq i32 %30, -1
  br i1 %31, label %32, label %34

32:                                               ; preds = %26
  %33 = call ptr @__errno_location() #17
  store i32 22, ptr %33, align 4, !tbaa !38
  store i32 -1, ptr %7, align 4
  store i32 1, ptr %15, align 4
  br label %42

34:                                               ; preds = %26
  %35 = load ptr, ptr %8, align 8, !tbaa !3
  %36 = load i32, ptr %14, align 4, !tbaa !38
  %37 = load ptr, ptr %10, align 8, !tbaa !106
  %38 = load ptr, ptr %11, align 8, !tbaa !121
  %39 = load i64, ptr %12, align 8, !tbaa !80
  %40 = load i64, ptr %13, align 8, !tbaa !80
  %41 = call i32 @hwloc__distances_get(ptr noundef %35, ptr noundef null, i32 noundef %36, ptr noundef %37, ptr noundef %38, i64 noundef %39, i64 noundef %40)
  store i32 %41, ptr %7, align 4
  store i32 1, ptr %15, align 4
  br label %42

42:                                               ; preds = %34, %32, %24
  call void @llvm.lifetime.end.p0(i64 4, ptr %14) #15
  %43 = load i32, ptr %7, align 4
  ret i32 %43
}